target datalayout = "e-m:e-p270:32:32-p271:32:32-p272:64:64-i64:64-i128:128-f80:128-n8:16:32:64-S128"
target triple = "x86_64-pc-linux-gnu"

@.str.148 = private unnamed_addr constant [28 x i8] c"%s: [%s] New RPC connection\00", align 1
@__func__._on_connection = private unnamed_addr constant [15 x i8] c"_on_connection\00", align 1
@.str.149 = private unnamed_addr constant [15 x i8] c"_on_extract_fd\00", align 1
@.str.150 = private unnamed_addr constant [35 x i8] c"%s: [%s] Extracting FDs failed: %s\00", align 1

; Function Attrs: nounwind uwtable
define internal ptr @_on_connection(ptr noundef %0, ptr noundef %1) #0 {
  %3 = alloca ptr, align 8
  %4 = alloca ptr, align 8
  %5 = alloca ptr, align 8
  %6 = alloca i32, align 4
  %7 = alloca i32, align 4
  store ptr %0, ptr %4, align 8
  store ptr %1, ptr %5, align 8
  call void @llvm.lifetime.start.p0(i64 4, ptr %6) #11
  br label %8

8:                                                ; preds = %2
  br label %9

9:                                                ; preds = %8
  %10 = call i32 @get_log_level()
  %11 = icmp sge i32 %10, 7
  br i1 %11, label %12, label %15

12:                                               ; preds = %9
  %13 = load ptr, ptr %4, align 8
  %14 = call ptr @conmgr_fd_get_name(ptr noundef %13)
  call void (i32, ptr, ...) @log_var(i32 noundef 7, ptr noundef @.str.148, ptr noundef @__func__._on_connection, ptr noundef %14)
  br label %15

15:                                               ; preds = %12, %9
  br label %16

16:                                               ; preds = %15
  br label %17

17:                                               ; preds = %16
  br label %18

18:                                               ; preds = %17
  br label %19

19:                                               ; preds = %18
  %20 = load ptr, ptr %4, align 8
  %21 = call i32 @conmgr_queue_extract_con_fd(ptr noundef %20, ptr noundef @_on_extract_fd, ptr noundef @.str.149, ptr noundef null)
  store i32 %21, ptr %6, align 4
  %22 = icmp ne i32 %21, 0
  br i1 %22, label %23, label %29

23:                                               ; preds = %19
  %24 = load ptr, ptr %4, align 8
  %25 = call ptr @conmgr_fd_get_name(ptr noundef %24)
  %26 = load i32, ptr %6, align 4
  %27 = call ptr @slurm_strerror(i32 noundef %26)
  %28 = call i32 (ptr, ...) @error(ptr noundef @.str.150, ptr noundef @__func__._on_connection, ptr noundef %25, ptr noundef %27)
  store ptr null, ptr %3, align 8
  store i32 1, ptr %7, align 4
  br label %31

29:                                               ; preds = %19
  %30 = load ptr, ptr %4, align 8
  store ptr %30, ptr %3, align 8
  store i32 1, ptr %7, align 4
  br label %31

31:                                               ; preds = %29, %23
  call void @llvm.lifetime.end.p0(i64 4, ptr %6) #11
  %32 = load ptr, ptr %3, align 8
  ret ptr %32
}