; Function Attrs: nounwind uwtable
define internal noundef ptr @_on_connection(ptr noundef %0, ptr readnone captures(none) %1) #0 {
  %3 = tail call i32 @get_log_level() #18
  %4 = icmp sgt i32 %3, 6
  br i1 %4, label %5, label %7

5:                                                ; preds = %2
  %6 = tail call ptr @conmgr_fd_get_name(ptr noundef %0) #18
  tail call void (i32, ptr, ...) @log_var(i32 noundef 7, ptr noundef nonnull @.str.148, ptr noundef nonnull @__func__._on_connection, ptr noundef %6) #18
  br label %7

7:                                                ; preds = %5, %2
  %8 = tail call i32 @conmgr_queue_extract_con_fd(ptr noundef %0, ptr noundef nonnull @_on_extract_fd, ptr noundef nonnull @.str.149, ptr noundef null) #18
  %.not = icmp eq i32 %8, 0
  br i1 %.not, label %13, label %9

9:                                                ; preds = %7
  %10 = tail call ptr @conmgr_fd_get_name(ptr noundef %0) #18
  %11 = tail call ptr @slurm_strerror(i32 noundef %8) #18
  %12 = tail call i32 (ptr, ...) @error(ptr noundef nonnull @.str.150, ptr noundef nonnull @__func__._on_connection, ptr noundef %10, ptr noundef %11) #18
  br label %13

13:                                               ; preds = %7, %9
  %.0 = phi ptr [ null, %9 ], [ %0, %7 ]
  ret ptr %.0
}